; Function Attrs: mustprogress uwtable
define internal void @_ZN11opencv_testL54gtest_MatInfo_Size_Scale_ResizeAreaFast_EvalGenerator_Ev(ptr dead_on_unwind noalias writable sret(%"class.testing::internal::ParamGenerator.85") align 8 %0) #4 {
  %2 = alloca %"class.testing::internal::CartesianProductHolder3", align 4
  call void @llvm.lifetime.start.p0(i64 60, ptr nonnull %2) #31
  %.sroa.03.0.copyload = load i64, ptr @_ZN4perfL5szVGAE, align 8
  %.sroa.02.0.copyload = load i64, ptr @_ZN4perfL5szqHDE, align 8
  %.sroa.01.0.copyload = load i64, ptr @_ZN4perfL6sz720pE, align 8
  %.sroa.0.0.copyload = load i64, ptr @_ZN4perfL7sz1080pE, align 8
  store i32 0, ptr %2, align 4, !tbaa !213, !alias.scope !215
  %3 = getelementptr inbounds nuw i8, ptr %2, i64 4
  store i32 16, ptr %3, align 4, !tbaa !218, !alias.scope !215
  %4 = getelementptr inbounds nuw i8, ptr %2, i64 8
  store i32 24, ptr %4, align 4, !tbaa !219, !alias.scope !215
  %5 = getelementptr inbounds nuw i8, ptr %2, i64 12
  store i32 2, ptr %5, align 4, !tbaa !220, !alias.scope !215
  %6 = getelementptr inbounds nuw i8, ptr %2, i64 16
  store i32 18, ptr %6, align 4, !tbaa !221, !alias.scope !215
  %7 = getelementptr inbounds nuw i8, ptr %2, i64 20
  store i32 26, ptr %7, align 4, !tbaa !222, !alias.scope !215
  %8 = getelementptr inbounds nuw i8, ptr %2, i64 24
  store i64 %.sroa.03.0.copyload, ptr %8, align 4, !alias.scope !215
  %9 = getelementptr inbounds nuw i8, ptr %2, i64 32
  store i64 %.sroa.02.0.copyload, ptr %9, align 4, !alias.scope !215
  %10 = getelementptr inbounds nuw i8, ptr %2, i64 40
  store i64 %.sroa.01.0.copyload, ptr %10, align 4, !alias.scope !215
  %11 = getelementptr inbounds nuw i8, ptr %2, i64 48
  store i64 %.sroa.0.0.copyload, ptr %11, align 4, !alias.scope !215
  %12 = getelementptr inbounds nuw i8, ptr %2, i64 56
  store i32 2, ptr %12, align 4, !tbaa !223, !alias.scope !215
  call void @_ZNK7testing8internal23CartesianProductHolder3INS0_11ValueArray6IiiiiiiEENS0_11ValueArray4IN2cv5Size_IiEES7_S7_S7_EENS0_11ValueArray1IiEEEcvNS0_14ParamGeneratorISt5tupleIJT_T0_T1_EEEEIN4perf7MatTypeES7_iEEv(ptr dead_on_unwind writable sret(%"class.testing::internal::ParamGenerator.85") align 8 %0, ptr noundef nonnull align 4 dereferenceable(60) %2)
  call void @llvm.lifetime.end.p0(i64 60, ptr nonnull %2) #31
  ret void
}